target datalayout = "e-m:e-p270:32:32-p271:32:32-p272:64:64-i64:64-i128:128-f80:128-n8:16:32:64-S128"
target triple = "x86_64-unknown-linux-gnu"

%"struct.net::(anonymous namespace)::CertSet" = type { i64, ptr, ptr, i64 }
%"class.base::BasicStringPiece" = type { ptr, i64 }

; Function Attrs: mustprogress uwtable
define internal noundef i32 @_ZN3net12_GLOBAL__N_17CompareEN4base16BasicStringPieceINSt7__cxx1112basic_stringIcSt11char_traitsIcESaIcEEEEEPKhm(ptr %a.coerce0, i64 %a.coerce1, ptr noundef %b, i64 noundef %b_len) #2 {
entry:
  %retval = alloca i32, align 4
  %a = alloca %"class.base::BasicStringPiece", align 8
  %b.addr = alloca ptr, align 8
  %b_len.addr = alloca i64, align 8
  %len = alloca i64, align 8
  %n = alloca i32, align 4
  %0 = getelementptr inbounds { ptr, i64 }, ptr %a, i32 0, i32 0
  store ptr %a.coerce0, ptr %0, align 8
  %1 = getelementptr inbounds { ptr, i64 }, ptr %a, i32 0, i32 1
  store i64 %a.coerce1, ptr %1, align 8
  store ptr %b, ptr %b.addr, align 8
  store i64 %b_len, ptr %b_len.addr, align 8
  %call = call noundef i64 @_ZNK4base16BasicStringPieceINSt7__cxx1112basic_stringIcSt11char_traitsIcESaIcEEEE4sizeEv(ptr noundef nonnull align 8 dereferenceable(16) %a)
  store i64 %call, ptr %len, align 8
  %2 = load i64, ptr %len, align 8
  %3 = load i64, ptr %b_len.addr, align 8
  %cmp = icmp ugt i64 %2, %3
  br i1 %cmp, label %if.then, label %if.end

if.then:                                          ; preds = %entry
  %4 = load i64, ptr %b_len.addr, align 8
  store i64 %4, ptr %len, align 8
  br label %if.end

if.end:                                           ; preds = %if.then, %entry
  %call1 = call noundef ptr @_ZNK4base16BasicStringPieceINSt7__cxx1112basic_stringIcSt11char_traitsIcESaIcEEEE4dataEv(ptr noundef nonnull align 8 dereferenceable(16) %a)
  %5 = load ptr, ptr %b.addr, align 8
  %6 = load i64, ptr %len, align 8
  %call2 = call i32 @memcmp(ptr noundef %call1, ptr noundef %5, i64 noundef %6) #13
  store i32 %call2, ptr %n, align 4
  %7 = load i32, ptr %n, align 4
  %cmp3 = icmp ne i32 %7, 0
  br i1 %cmp3, label %if.then4, label %if.end5

if.then4:                                         ; preds = %if.end
  %8 = load i32, ptr %n, align 4
  store i32 %8, ptr %retval, align 4
  br label %return

if.end5:                                          ; preds = %if.end
  %call6 = call noundef i64 @_ZNK4base16BasicStringPieceINSt7__cxx1112basic_stringIcSt11char_traitsIcESaIcEEEE4sizeEv(ptr noundef nonnull align 8 dereferenceable(16) %a)
  %9 = load i64, ptr %b_len.addr, align 8
  %cmp7 = icmp ult i64 %call6, %9
  br i1 %cmp7, label %if.then8, label %if.else

if.then8:                                         ; preds = %if.end5
  store i32 -1, ptr %retval, align 4
  br label %return

if.else:                                          ; preds = %if.end5
  %call9 = call noundef i64 @_ZNK4base16BasicStringPieceINSt7__cxx1112basic_stringIcSt11char_traitsIcESaIcEEEE4sizeEv(ptr noundef nonnull align 8 dereferenceable(16) %a)
  %10 = load i64, ptr %b_len.addr, align 8
  %cmp10 = icmp ugt i64 %call9, %10
  br i1 %cmp10, label %if.then11, label %if.end12

if.then11:                                        ; preds = %if.else
  store i32 1, ptr %retval, align 4
  br label %return

if.end12:                                         ; preds = %if.else
  br label %if.end13

if.end13:                                         ; preds = %if.end12
  store i32 0, ptr %retval, align 4
  br label %return

return:                                           ; preds = %if.end13, %if.then11, %if.then8, %if.then4
  %11 = load i32, ptr %retval, align 4
  ret i32 %11
}

; Function Attrs: mustprogress uwtable
define internal noundef zeroext i1 @_ZNK3net12_GLOBAL__N_118CommonCertSetsQUIC9MatchCertEN4base16BasicStringPieceINSt7__cxx1112basic_stringIcSt11char_traitsIcESaIcEEEEESA_PmPj(ptr noundef nonnull align 8 dereferenceable(8) %this, ptr %cert.coerce0, i64 %cert.coerce1, ptr %common_set_hashes.coerce0, i64 %common_set_hashes.coerce1, ptr noundef %out_hash, ptr noundef %out_index) unnamed_addr #2 align 2 {
entry:
  %retval = alloca i1, align 1
  %cert = alloca %"class.base::BasicStringPiece", align 8
  %common_set_hashes = alloca %"class.base::BasicStringPiece", align 8
  %this.addr = alloca ptr, align 8
  %out_hash.addr = alloca ptr, align 8
  %out_index.addr = alloca ptr, align 8
  %i = alloca i64, align 8
  %hash = alloca i64, align 8
  %j = alloca i64, align 8
  %min = alloca i64, align 8
  %max = alloca i64, align 8
  %mid = alloca i64, align 8
  %n = alloca i32, align 4
  %agg.tmp = alloca %"class.base::BasicStringPiece", align 8
  %0 = getelementptr inbounds { ptr, i64 }, ptr %cert, i32 0, i32 0
  store ptr %cert.coerce0, ptr %0, align 8
  %1 = getelementptr inbounds { ptr, i64 }, ptr %cert, i32 0, i32 1
  store i64 %cert.coerce1, ptr %1, align 8
  %2 = getelementptr inbounds { ptr, i64 }, ptr %common_set_hashes, i32 0, i32 0
  store ptr %common_set_hashes.coerce0, ptr %2, align 8
  %3 = getelementptr inbounds { ptr, i64 }, ptr %common_set_hashes, i32 0, i32 1
  store i64 %common_set_hashes.coerce1, ptr %3, align 8
  store ptr %this, ptr %this.addr, align 8
  store ptr %out_hash, ptr %out_hash.addr, align 8
  store ptr %out_index, ptr %out_index.addr, align 8
  %call = call noundef i64 @_ZNK4base16BasicStringPieceINSt7__cxx1112basic_stringIcSt11char_traitsIcESaIcEEEE4sizeEv(ptr noundef nonnull align 8 dereferenceable(16) %common_set_hashes)
  %rem = urem i64 %call, 8
  %cmp = icmp ne i64 %rem, 0
  br i1 %cmp, label %if.then, label %if.end

if.then:                                          ; preds = %entry
  store i1 false, ptr %retval, align 1
  br label %return

if.end:                                           ; preds = %entry
  store i64 0, ptr %i, align 8
  br label %for.cond

for.cond:                                         ; preds = %for.inc38, %if.end
  %4 = load i64, ptr %i, align 8
  %call2 = call noundef i64 @_ZNK4base16BasicStringPieceINSt7__cxx1112basic_stringIcSt11char_traitsIcESaIcEEEE4sizeEv(ptr noundef nonnull align 8 dereferenceable(16) %common_set_hashes)
  %div = udiv i64 %call2, 8
  %cmp3 = icmp ult i64 %4, %div
  br i1 %cmp3, label %for.body, label %for.end40

for.body:                                         ; preds = %for.cond
  %call4 = call noundef ptr @_ZNK4base16BasicStringPieceINSt7__cxx1112basic_stringIcSt11char_traitsIcESaIcEEEE4dataEv(ptr noundef nonnull align 8 dereferenceable(16) %common_set_hashes)
  %5 = load i64, ptr %i, align 8
  %mul = mul i64 %5, 8
  %add.ptr = getelementptr inbounds i8, ptr %call4, i64 %mul
  call void @llvm.memcpy.p0.p0.i64(ptr align 8 %hash, ptr align 1 %add.ptr, i64 8, i1 false)
  store i64 0, ptr %j, align 8
  br label %for.cond5

for.cond5:                                        ; preds = %for.inc, %for.body
  %6 = load i64, ptr %j, align 8
  %cmp6 = icmp ult i64 %6, 2
  br i1 %cmp6, label %for.body7, label %for.end

for.body7:                                        ; preds = %for.cond5
  %7 = load i64, ptr %j, align 8
  %arrayidx = getelementptr inbounds [2 x %"struct.net::(anonymous namespace)::CertSet"], ptr @_ZN3net12_GLOBAL__N_15kSetsE, i64 0, i64 %7
  %hash8 = getelementptr inbounds %"struct.net::(anonymous namespace)::CertSet", ptr %arrayidx, i32 0, i32 3
  %8 = load i64, ptr %hash8, align 8
  %9 = load i64, ptr %hash, align 8
  %cmp9 = icmp ne i64 %8, %9
  br i1 %cmp9, label %if.then10, label %if.end11

if.then10:                                        ; preds = %for.body7
  br label %for.inc

if.end11:                                         ; preds = %for.body7
  %10 = load i64, ptr %j, align 8
  %arrayidx12 = getelementptr inbounds [2 x %"struct.net::(anonymous namespace)::CertSet"], ptr @_ZN3net12_GLOBAL__N_15kSetsE, i64 0, i64 %10
  %num_certs = getelementptr inbounds %"struct.net::(anonymous namespace)::CertSet", ptr %arrayidx12, i32 0, i32 0
  %11 = load i64, ptr %num_certs, align 16
  %cmp13 = icmp eq i64 %11, 0
  br i1 %cmp13, label %if.then14, label %if.end15

if.then14:                                        ; preds = %if.end11
  br label %for.inc

if.end15:                                         ; preds = %if.end11
  store i64 0, ptr %min, align 8
  %12 = load i64, ptr %j, align 8
  %arrayidx16 = getelementptr inbounds [2 x %"struct.net::(anonymous namespace)::CertSet"], ptr @_ZN3net12_GLOBAL__N_15kSetsE, i64 0, i64 %12
  %num_certs17 = getelementptr inbounds %"struct.net::(anonymous namespace)::CertSet", ptr %arrayidx16, i32 0, i32 0
  %13 = load i64, ptr %num_certs17, align 16
  %sub = sub i64 %13, 1
  store i64 %sub, ptr %max, align 8
  br label %while.cond

while.cond:                                       ; preds = %if.end37, %if.end15
  %14 = load i64, ptr %max, align 8
  %15 = load i64, ptr %min, align 8
  %cmp18 = icmp uge i64 %14, %15
  br i1 %cmp18, label %while.body, label %while.end

while.body:                                       ; preds = %while.cond
  %16 = load i64, ptr %min, align 8
  %17 = load i64, ptr %max, align 8
  %18 = load i64, ptr %min, align 8
  %sub19 = sub i64 %17, %18
  %div20 = udiv i64 %sub19, 2
  %add = add i64 %16, %div20
  store i64 %add, ptr %mid, align 8
  call void @llvm.memcpy.p0.p0.i64(ptr align 8 %agg.tmp, ptr align 8 %cert, i64 16, i1 false)
  %19 = load i64, ptr %j, align 8
  %arrayidx21 = getelementptr inbounds [2 x %"struct.net::(anonymous namespace)::CertSet"], ptr @_ZN3net12_GLOBAL__N_15kSetsE, i64 0, i64 %19
  %certs = getelementptr inbounds %"struct.net::(anonymous namespace)::CertSet", ptr %arrayidx21, i32 0, i32 1
  %20 = load ptr, ptr %certs, align 8
  %21 = load i64, ptr %mid, align 8
  %arrayidx22 = getelementptr inbounds ptr, ptr %20, i64 %21
  %22 = load ptr, ptr %arrayidx22, align 8
  %23 = load i64, ptr %j, align 8
  %arrayidx23 = getelementptr inbounds [2 x %"struct.net::(anonymous namespace)::CertSet"], ptr @_ZN3net12_GLOBAL__N_15kSetsE, i64 0, i64 %23
  %lens = getelementptr inbounds %"struct.net::(anonymous namespace)::CertSet", ptr %arrayidx23, i32 0, i32 2
  %24 = load ptr, ptr %lens, align 16
  %25 = load i64, ptr %mid, align 8
  %arrayidx24 = getelementptr inbounds i64, ptr %24, i64 %25
  %26 = load i64, ptr %arrayidx24, align 8
  %27 = getelementptr inbounds { ptr, i64 }, ptr %agg.tmp, i32 0, i32 0
  %28 = load ptr, ptr %27, align 8
  %29 = getelementptr inbounds { ptr, i64 }, ptr %agg.tmp, i32 0, i32 1
  %30 = load i64, ptr %29, align 8
  %call25 = call noundef i32 @_ZN3net12_GLOBAL__N_17CompareEN4base16BasicStringPieceINSt7__cxx1112basic_stringIcSt11char_traitsIcESaIcEEEEEPKhm(ptr %28, i64 %30, ptr noundef %22, i64 noundef %26)
  store i32 %call25, ptr %n, align 4
  %31 = load i32, ptr %n, align 4
  %cmp26 = icmp slt i32 %31, 0
  br i1 %cmp26, label %if.then27, label %if.else

if.then27:                                        ; preds = %while.body
  %32 = load i64, ptr %mid, align 8
  %cmp28 = icmp eq i64 %32, 0
  br i1 %cmp28, label %if.then29, label %if.end30

if.then29:                                        ; preds = %if.then27
  br label %while.end

if.end30:                                         ; preds = %if.then27
  %33 = load i64, ptr %mid, align 8
  %sub31 = sub i64 %33, 1
  store i64 %sub31, ptr %max, align 8
  br label %if.end37

if.else:                                          ; preds = %while.body
  %34 = load i32, ptr %n, align 4
  %cmp32 = icmp sgt i32 %34, 0
  br i1 %cmp32, label %if.then33, label %if.else35

if.then33:                                        ; preds = %if.else
  %35 = load i64, ptr %mid, align 8
  %add34 = add i64 %35, 1
  store i64 %add34, ptr %min, align 8
  br label %if.end36

if.else35:                                        ; preds = %if.else
  %36 = load i64, ptr %hash, align 8
  %37 = load ptr, ptr %out_hash.addr, align 8
  store i64 %36, ptr %37, align 8
  %38 = load i64, ptr %mid, align 8
  %conv = trunc i64 %38 to i32
  %39 = load ptr, ptr %out_index.addr, align 8
  store i32 %conv, ptr %39, align 4
  store i1 true, ptr %retval, align 1
  br label %return

if.end36:                                         ; preds = %if.then33
  br label %if.end37

if.end37:                                         ; preds = %if.end36, %if.end30
  br label %while.cond, !llvm.loop !7

while.end:                                        ; preds = %if.then29, %while.cond
  br label %for.inc

for.inc:                                          ; preds = %while.end, %if.then14, %if.then10
  %40 = load i64, ptr %j, align 8
  %inc = add i64 %40, 1
  store i64 %inc, ptr %j, align 8
  br label %for.cond5, !llvm.loop !8

for.end:                                          ; preds = %for.cond5
  br label %for.inc38

for.inc38:                                        ; preds = %for.end
  %41 = load i64, ptr %i, align 8
  %inc39 = add i64 %41, 1
  store i64 %inc39, ptr %i, align 8
  br label %for.cond, !llvm.loop !9

for.end40:                                        ; preds = %for.cond
  store i1 false, ptr %retval, align 1
  br label %return

return:                                           ; preds = %for.end40, %if.else35, %if.then
  %42 = load i1, ptr %retval, align 1
  ret i1 %42
}