; Function Attrs: mustprogress uwtable
define internal noundef zeroext i1 @_ZNK3net12_GLOBAL__N_118CommonCertSetsQUIC9MatchCertEN4base16BasicStringPieceINSt7__cxx1112basic_stringIcSt11char_traitsIcESaIcEEEEESA_PmPj(ptr nocapture nonnull readnone align 8 %this, ptr %cert.coerce0, i64 %cert.coerce1, ptr %common_set_hashes.coerce0, i64 %common_set_hashes.coerce1, ptr nocapture noundef writeonly %out_hash, ptr nocapture noundef writeonly %out_index) unnamed_addr #3 align 2 {
entry:
  %a.i = alloca %"class.base::BasicStringPiece", align 8
  %common_set_hashes = alloca %"class.base::BasicStringPiece", align 8
  store ptr %common_set_hashes.coerce0, ptr %common_set_hashes, align 8
  %0 = getelementptr inbounds i8, ptr %common_set_hashes, i64 8
  store i64 %common_set_hashes.coerce1, ptr %0, align 8
  %call = call noundef i64 @_ZNK4base16BasicStringPieceINSt7__cxx1112basic_stringIcSt11char_traitsIcESaIcEEEE4sizeEv(ptr noundef nonnull align 8 dereferenceable(16) %common_set_hashes)
  %rem = and i64 %call, 7
  %cmp.not = icmp eq i64 %rem, 0
  br i1 %cmp.not, label %for.cond.preheader, label %return

for.cond.preheader:                               ; preds = %entry
  %call232 = call noundef i64 @_ZNK4base16BasicStringPieceINSt7__cxx1112basic_stringIcSt11char_traitsIcESaIcEEEE4sizeEv(ptr noundef nonnull align 8 dereferenceable(16) %common_set_hashes)
  %cmp334.not = icmp ult i64 %call232, 8
  br i1 %cmp334.not, label %return, label %for.body.lr.ph

for.body.lr.ph:                                   ; preds = %for.cond.preheader
  %1 = getelementptr inbounds i8, ptr %a.i, i64 8
  br label %for.body

for.body:                                         ; preds = %for.body.lr.ph, %for.inc38
  %i.035 = phi i64 [ 0, %for.body.lr.ph ], [ %inc39, %for.inc38 ]
  %call4 = call noundef ptr @_ZNK4base16BasicStringPieceINSt7__cxx1112basic_stringIcSt11char_traitsIcESaIcEEEE4dataEv(ptr noundef nonnull align 8 dereferenceable(16) %common_set_hashes)
  %mul = shl nuw i64 %i.035, 3
  %add.ptr = getelementptr inbounds i8, ptr %call4, i64 %mul
  %hash.0.copyload = load i64, ptr %add.ptr, align 1
  br label %for.body7

for.body7:                                        ; preds = %for.body, %for.inc
  %cmp6 = phi i1 [ true, %for.body ], [ false, %for.inc ]
  %j.031 = phi i64 [ 0, %for.body ], [ 1, %for.inc ]
  %arrayidx = getelementptr inbounds [2 x %"struct.net::(anonymous namespace)::CertSet"], ptr @_ZN3net12_GLOBAL__N_15kSetsE, i64 0, i64 %j.031
  %hash8 = getelementptr inbounds i8, ptr %arrayidx, i64 24
  %2 = load i64, ptr %hash8, align 8
  %cmp9.not = icmp eq i64 %2, %hash.0.copyload
  br i1 %cmp9.not, label %if.end11, label %for.inc

if.end11:                                         ; preds = %for.body7
  %3 = load i64, ptr %arrayidx, align 16
  %cmp13 = icmp eq i64 %3, 0
  br i1 %cmp13, label %for.inc, label %if.end15

if.end15:                                         ; preds = %if.end11
  %sub = add i64 %3, -1
  %certs = getelementptr inbounds i8, ptr %arrayidx, i64 8
  %4 = load ptr, ptr %certs, align 8
  %lens = getelementptr inbounds i8, ptr %arrayidx, i64 16
  %5 = load ptr, ptr %lens, align 16
  br label %while.body

while.body:                                       ; preds = %if.end15, %if.end37
  %min.030 = phi i64 [ 0, %if.end15 ], [ %min.1, %if.end37 ]
  %max.029 = phi i64 [ %sub, %if.end15 ], [ %max.1, %if.end37 ]
  %sub19 = sub i64 %max.029, %min.030
  %div2020 = lshr i64 %sub19, 1
  %add = add i64 %div2020, %min.030
  %arrayidx22 = getelementptr inbounds ptr, ptr %4, i64 %add
  %6 = load ptr, ptr %arrayidx22, align 8
  %arrayidx24 = getelementptr inbounds i64, ptr %5, i64 %add
  %7 = load i64, ptr %arrayidx24, align 8
  call void @llvm.lifetime.start.p0(i64 16, ptr nonnull %a.i)
  store ptr %cert.coerce0, ptr %a.i, align 8
  store i64 %cert.coerce1, ptr %1, align 8
  %call.i = call noundef i64 @_ZNK4base16BasicStringPieceINSt7__cxx1112basic_stringIcSt11char_traitsIcESaIcEEEE4sizeEv(ptr noundef nonnull align 8 dereferenceable(16) %a.i)
  %spec.select.i = call i64 @llvm.umin.i64(i64 %call.i, i64 %7)
  %call1.i = call noundef ptr @_ZNK4base16BasicStringPieceINSt7__cxx1112basic_stringIcSt11char_traitsIcESaIcEEEE4dataEv(ptr noundef nonnull align 8 dereferenceable(16) %a.i)
  %call2.i = call i32 @memcmp(ptr noundef %call1.i, ptr noundef %6, i64 noundef %spec.select.i) #15
  %cmp3.not.i = icmp eq i32 %call2.i, 0
  br i1 %cmp3.not.i, label %if.end5.i, label %_ZN3net12_GLOBAL__N_17CompareEN4base16BasicStringPieceINSt7__cxx1112basic_stringIcSt11char_traitsIcESaIcEEEEEPKhm.exit

if.end5.i:                                        ; preds = %while.body
  %call6.i = call noundef i64 @_ZNK4base16BasicStringPieceINSt7__cxx1112basic_stringIcSt11char_traitsIcESaIcEEEE4sizeEv(ptr noundef nonnull align 8 dereferenceable(16) %a.i)
  %cmp7.i = icmp ult i64 %call6.i, %7
  br i1 %cmp7.i, label %_ZN3net12_GLOBAL__N_17CompareEN4base16BasicStringPieceINSt7__cxx1112basic_stringIcSt11char_traitsIcESaIcEEEEEPKhm.exit.thread, label %if.else

_ZN3net12_GLOBAL__N_17CompareEN4base16BasicStringPieceINSt7__cxx1112basic_stringIcSt11char_traitsIcESaIcEEEEEPKhm.exit.thread: ; preds = %if.end5.i
  call void @llvm.lifetime.end.p0(i64 16, ptr nonnull %a.i)
  br label %if.then27

_ZN3net12_GLOBAL__N_17CompareEN4base16BasicStringPieceINSt7__cxx1112basic_stringIcSt11char_traitsIcESaIcEEEEEPKhm.exit: ; preds = %while.body
  call void @llvm.lifetime.end.p0(i64 16, ptr nonnull %a.i)
  %cmp26 = icmp slt i32 %call2.i, 0
  br i1 %cmp26, label %if.then27, label %if.then33

if.then27:                                        ; preds = %_ZN3net12_GLOBAL__N_17CompareEN4base16BasicStringPieceINSt7__cxx1112basic_stringIcSt11char_traitsIcESaIcEEEEEPKhm.exit.thread, %_ZN3net12_GLOBAL__N_17CompareEN4base16BasicStringPieceINSt7__cxx1112basic_stringIcSt11char_traitsIcESaIcEEEEEPKhm.exit
  %cmp28 = icmp eq i64 %add, 0
  br i1 %cmp28, label %for.inc, label %if.end30

if.end30:                                         ; preds = %if.then27
  %sub31 = add i64 %add, -1
  br label %if.end37

if.else:                                          ; preds = %if.end5.i
  %call9.i = call noundef i64 @_ZNK4base16BasicStringPieceINSt7__cxx1112basic_stringIcSt11char_traitsIcESaIcEEEE4sizeEv(ptr noundef nonnull align 8 dereferenceable(16) %a.i)
  %cmp10.i.not = icmp ugt i64 %call9.i, %7
  call void @llvm.lifetime.end.p0(i64 16, ptr nonnull %a.i)
  br i1 %cmp10.i.not, label %if.then33, label %if.else35

if.then33:                                        ; preds = %_ZN3net12_GLOBAL__N_17CompareEN4base16BasicStringPieceINSt7__cxx1112basic_stringIcSt11char_traitsIcESaIcEEEEEPKhm.exit, %if.else
  %add34 = add i64 %add, 1
  br label %if.end37

if.else35:                                        ; preds = %if.else
  store i64 %hash.0.copyload, ptr %out_hash, align 8
  %conv = trunc i64 %add to i32
  store i32 %conv, ptr %out_index, align 4
  br label %return

if.end37:                                         ; preds = %if.then33, %if.end30
  %max.1 = phi i64 [ %sub31, %if.end30 ], [ %max.029, %if.then33 ]
  %min.1 = phi i64 [ %min.030, %if.end30 ], [ %add34, %if.then33 ]
  %cmp18.not = icmp ult i64 %max.1, %min.1
  br i1 %cmp18.not, label %for.inc, label %while.body, !llvm.loop !7

for.inc:                                          ; preds = %if.end37, %if.then27, %if.end11, %for.body7
  br i1 %cmp6, label %for.body7, label %for.inc38, !llvm.loop !8

for.inc38:                                        ; preds = %for.inc
  %inc39 = add nuw nsw i64 %i.035, 1
  %call2 = call noundef i64 @_ZNK4base16BasicStringPieceINSt7__cxx1112basic_stringIcSt11char_traitsIcESaIcEEEE4sizeEv(ptr noundef nonnull align 8 dereferenceable(16) %common_set_hashes)
  %div19 = lshr i64 %call2, 3
  %cmp3 = icmp ult i64 %inc39, %div19
  br i1 %cmp3, label %for.body, label %return, !llvm.loop !9

return:                                           ; preds = %for.inc38, %for.cond.preheader, %entry, %if.else35
  %retval.0 = phi i1 [ true, %if.else35 ], [ false, %entry ], [ false, %for.cond.preheader ], [ false, %for.inc38 ]
  ret i1 %retval.0
}